(lp1
(lp2
I74
aI0
aI0
aa(lp3
I193
aI0
aI0
aa(lp4
I351
aI27
aI0
aa(lp5
I165
aI0
aI0
aa(lp6
I162
aI0
aI0
aa(lp7
I46
aI0
aI0
aa(lp8
I91
aI0
aI0
aa(lp9
I154
aI0
aI0
aa(lp10
I204
aI0
aI0
aa(lp11
I254
aI2
aI0
aa(lp12
I167
aI0
aI0
aa(lp13
I198
aI0
aI0
aa(lp14
I179
aI0
aI0
aa(lp15
I316
aI57
aI0
aa(lp16
I142
aI18
aI0
aa(lp17
I289
aI43
aI0
aa(lp18
I258
aI25
aI0
aa(lp19
I200
aI14
aI0
aa(lp20
I333
aI44
aI0
aa(lp21
I252
aI0
aI0
aa(lp22
I288
aI45
aI0
aa(lp23
I321
aI36
aI0
aa(lp24
I249
aI19
aI0
aa(lp25
I395
aI128
aI0
aa(lp26
I220
aI0
aI0
aa(lp27
I195
aI46
aI0
aa(lp28
I209
aI40
aI0
aa(lp29
I312
aI74
aI0
aa(lp30
I189
aI30
aI0
aa(lp31
I322
aI64
aI0
aa(lp32
I237
aI29
aI0
aa(lp33
I281
aI38
aI0
aa(lp34
I256
aI37
aI0
aa(lp35
I205
aI0
aI0
aa(lp36
I327
aI73
aI0
aa(lp37
I325
aI45
aI0
aa(lp38
I195
aI0
aI0
aa(lp39
I350
aI64
aI0
aa(lp40
I338
aI53
aI0
aa(lp41
I352
aI27
aI0
aa(lp42
I195
aI0
aI0
aa(lp43
I214
aI0
aI0
aa(lp44
I226
aI28
aI0
aa(lp45
I343
aI106
aI0
aa(lp46
I403
aI90
aI0
aa(lp47
I304
aI63
aI0
aa(lp48
I147
aI0
aI0
aa(lp49
I353
aI36
aI0
aa(lp50
I170
aI0
aI0
aa(lp51
I369
aI57
aI0
aa(lp52
I190
aI0
aI0
aa(lp53
I219
aI3
aI0
aa(lp54
I247
aI28
aI0
aa(lp55
I327
aI58
aI0
aa(lp56
I166
aI18
aI0
aa(lp57
I239
aI26
aI0
aa(lp58
I365
aI42
aI0
aa(lp59
I182
aI0
aI0
aa(lp60
I304
aI45
aI0
aa(lp61
I232
aI0
aI0
aa(lp62
I298
aI58
aI0
aa(lp63
I203
aI0
aI0
aa(lp64
I241
aI57
aI0
aa(lp65
I211
aI0
aI0
aa(lp66
I390
aI43
aI0
aa(lp67
I315
aI61
aI0
aa(lp68
I350
aI60
aI0
aa(lp69
I314
aI61
aI0
aa(lp70
I330
aI43
aI0
aa(lp71
I269
aI43
aI0
aa(lp72
I235
aI0
aI0
aa(lp73
I90
aI0
aI0
aa(lp74
I234
aI0
aI0
aa(lp75
I260
aI22
aI0
aa(lp76
I70
aI0
aI0
aa(lp77
I331
aI52
aI0
aa(lp78
I347
aI56
aI0
aa(lp79
I325
aI28
aI0
aa(lp80
I318
aI47
aI0
aa(lp81
I169
aI0
aI0
aa(lp82
I246
aI110
aI0
aa(lp83
I144
aI21
aI0
aa(lp84
I210
aI0
aI0
aa(lp85
I123
aI0
aI0
aa(lp86
I164
aI0
aI0
aa(lp87
I137
aI0
aI0
aa(lp88
I201
aI0
aI0
aa(lp89
I85
aI0
aI0
aa(lp90
I182
aI0
aI0
aa(lp91
I177
aI0
aI0
aa(lp92
I86
aI0
aI0
aa(lp93
I77
aI0
aI0
aa(lp94
I193
aI0
aI0
aa(lp95
I185
aI0
aI0
aa(lp96
I174
aI0
aI0
aa(lp97
I170
aI0
aI0
aa(lp98
I137
aI0
aI0
aa(lp99
I193
aI0
aI0
aa(lp100
I126
aI0
aI0
aa(lp101
I197
aI0
aI0
aa.